Certificate:
    Data:
        Version: 3 (0x2)
        Serial Number:
            c2:31:db:41:c9:7b:a9:46
        Signature Algorithm: sha1WithRSAEncryption
        Issuer: C=BE, ST=Antwerp, O=In Serf we trust, Inc., OU=Test Suite, CN=Serf/emailAddress=serf@example.com, L=Mechelen
        Validity
            Not Before: Mar 21 13:18:17 2008 GMT
            Not After : Mar 21 13:18:17 2011 GMT
        Subject: C=BE, ST=Antwerp, O=In Serf we trust, Inc., OU=Test Suite, CN=Serf/emailAddress=serf@example.com, L=Mechelen
        Subject Public Key Info:
            Public Key Algorithm: rsaEncryption
            RSA Public Key: (1024 bit)
                Modulus (1024 bit):
                    00:a1:21:58:60:ea:79:ae:9f:0f:f4:69:b5:af:55:
                    9a:8b:da:1d:74:80:88:44:42:46:64:59:98:3e:84:
                    e1:70:f7:18:e1:7c:8d:cc:42:27:cd:e6:31:47:51:
                    66:3d:58:1c:f9:54:26:4f:12:b7:0e:46:a7:27:c1:
                    ca:ac:a7:38:0f:a1:00:fb:a8:20:77:37:14:6a:7b:
                    65:34:1c:eb:30:fa:0b:9e:57:2c:7a:04:13:50:d4:
                    e2:7c:66:5f:97:45:75:78:47:f5:9e:68:9d:40:b9:
                    94:d3:78:50:c8:19:10:50:52:fd:2f:b8:a1:75:74:
                    ad:73:95:46:9a:8e:95:b2:3d
                Exponent: 65537 (0x10001)
        X509v3 extensions:
            X509v3 Subject Key Identifier: 
                15:BB:2D:8C:63:10:0D:31:01:D1:C6:26:01:27:43:A5:F4:57:6E:ED
            X509v3 Authority Key Identifier: 
                keyid:15:BB:2D:8C:63:10:0D:31:01:D1:C6:26:01:27:43:A5:F4:57:6E:ED
                DirName:/C=BE/ST=Antwerp/O=In Serf we trust, Inc./OU=Test Suite/CN=Serf/emailAddress=serf@example.com/L=Mechelen
                serial:C2:31:DB:41:C9:7B:A9:46

            X509v3 Basic Constraints: 
                CA:TRUE
    Signature Algorithm: sha1WithRSAEncryption
        59:9c:b0:62:cc:a4:c0:98:68:4b:52:bf:fa:84:ee:b5:65:d5:
        a7:51:39:77:a0:be:d6:14:b0:7a:64:2f:0d:ee:49:e8:b6:6a:
        c7:1d:5f:bc:27:4c:25:4b:25:b7:69:5c:07:86:54:69:22:99:
        d9:1a:5d:dd:38:c9:00:b4:29:89:7d:ce:df:b5:3f:57:05:ee:
        5b:0e:a4:f0:bc:7a:4f:1b:ba:84:85:e8:0f:e3:6b:fa:6f:cf:
        3f:23:7c:d0:dd:c8:95:91:46:8a:05:84:84:46:cf:e3:c8:fc:
        9c:94:c2:dd:15:d4:6e:d1:31:0b:d9:7b:ce:1e:13:72:c9:2e:
        a9:86
-----BEGIN CERTIFICATE-----
MIIDsjCCAxugAwIBAgIJAMIx20HJe6lGMA0GCSqGSIb3DQEBBQUAMIGYMQswCQYD
VQQGEwJCRTEQMA4GA1UECBMHQW50d2VycDEfMB0GA1UEChMWSW4gU2VyZiB3ZSB0
cnVzdCwgSW5jLjETMBEGA1UECxMKVGVzdCBTdWl0ZTENMAsGA1UEAxMEU2VyZjEf
MB0GCSqGSIb3DQEJARYQc2VyZkBleGFtcGxlLmNvbTERMA8GA1UEBxMITWVjaGVs
ZW4wHhcNMDgwMzIxMTMxODE3WhcNMTEwMzIxMTMxODE3WjCBmDELMAkGA1UEBhMC
QkUxEDAOBgNVBAgTB0FudHdlcnAxHzAdBgNVBAoTFkluIFNlcmYgd2UgdHJ1c3Qs
IEluYy4xEzARBgNVBAsTClRlc3QgU3VpdGUxDTALBgNVBAMTBFNlcmYxHzAdBgkq
hkiG9w0BCQEWEHNlcmZAZXhhbXBsZS5jb20xETAPBgNVBAcTCE1lY2hlbGVuMIGf
MA0GCSqGSIb3DQEBAQUAA4GNADCBiQKBgQChIVhg6nmunw/0abWvVZqL2h10gIhE
QkZkWZg+hOFw9xjhfI3MQifN5jFHUWY9WBz5VCZPErcORqcnwcqspzgPoQD7qCB3
NxRqe2U0HOsw+gueVyx6BBNQ1OJ8Zl+XRXV4R/WeaJ1AuZTTeFDIGRBQUv0vuKF1
dK1zlUaajpWyPQIDAQABo4IBADCB/TAdBgNVHQ4EFgQUFbstjGMQDTEB0cYmASdD
pfRXbu0wgc0GA1UdIwSBxTCBwoAUFbstjGMQDTEB0cYmASdDpfRXbu2hgZ6kgZsw
gZgxCzAJBgNVBAYTAkJFMRAwDgYDVQQIEwdBbnR3ZXJwMR8wHQYDVQQKExZJbiBT
ZXJmIHdlIHRydXN0LCBJbmMuMRMwEQYDVQQLEwpUZXN0IFN1aXRlMQ0wCwYDVQQD
EwRTZXJmMR8wHQYJKoZIhvcNAQkBFhBzZXJmQGV4YW1wbGUuY29tMREwDwYDVQQH
EwhNZWNoZWxlboIJAMIx20HJe6lGMAwGA1UdEwQFMAMBAf8wDQYJKoZIhvcNAQEF
BQADgYEAWZywYsykwJhoS1K/+oTutWXVp1E5d6C+1hSwemQvDe5J6LZqxx1fvCdM
JUslt2lcB4ZUaSKZ2Rpd3TjJALQpiX3O37U/VwXuWw6k8Lx6Txu6hIXoD+Nr+m/P
PyN80N3IlZFGigWEhEbP48j8nJTC3RXUbtExC9l7zh4TcskuqYY=
-----END CERTIFICATE-----
