Certificate:
    Data:
        Version: 1 (0x0)
        Serial Number: 1048579 (0x100003)
    Signature Algorithm: sha1WithRSAEncryption
        Issuer: C=BE, ST=Antwerp, L=Mechelen, O=In Serf we trust, Inc., OU=Test Suite CA, CN=Serf CA/emailAddress=serfca@example.com
        Validity
            Not Before: Apr 13 11:41:01 2013 GMT
            Not After : Apr 13 11:41:01 2014 GMT
        Subject: C=BE, ST=Antwerp, L=Mechelen, O=In Serf we trust, Inc., OU=Test Suite Server, CN=Serf Server/emailAddress=serfserver@example.com
        Subject Public Key Info:
            Public Key Algorithm: rsaEncryption
                Public-Key: (1024 bit)
                Modulus:
                    00:aa:8d:56:e7:0d:99:03:9b:3f:b3:c0:2a:63:33:
                    51:65:4b:e7:d2:6c:60:d2:52:d7:8a:6d:c9:8b:93:
                    3d:4c:1a:eb:29:26:9c:19:dc:a5:a6:70:3f:0b:a7:
                    69:4d:8b:35:00:b6:8f:f2:4f:b6:38:43:b9:a7:c8:
                    2d:51:7f:f2:f7:00:28:48:b8:f7:9a:7d:a5:7d:5c:
                    17:f7:d0:14:54:86:39:88:43:1d:5c:d8:d4:56:9f:
                    88:a8:3c:47:7f:65:cf:94:56:b0:d8:b6:dd:25:66:
                    34:ba:cb:43:cd:df:93:ce:27:1b:57:7f:8a:50:f5:
                    5a:33:d3:55:52:ff:9e:f7:4f
                Exponent: 65537 (0x10001)
    Signature Algorithm: sha1WithRSAEncryption
         82:02:80:89:ec:c2:56:51:1f:d1:f6:2f:8c:d9:50:49:c2:7f:
         00:76:53:65:15:96:bb:0f:7e:b3:5b:06:c2:9c:44:77:34:e9:
         64:41:ca:cd:aa:41:4a:6f:b0:95:cb:41:11:1b:75:0e:5e:d6:
         34:80:8f:22:a9:e4:ce:cd:9a:b6:0c:96:7e:e6:2a:f0:ce:eb:
         86:7a:2b:df:b8:13:3a:c8:b5:9d:5b:71:9c:40:61:56:c6:f9:
         90:b8:4f:1d:14:88:b2:ad:40:08:f5:88:ab:10:5d:74:6d:a6:
         29:3d:1b:01:68:9f:29:48:24:d9:3d:52:47:ca:bf:22:af:fd:
         7b:df
-----BEGIN CERTIFICATE-----
MIICvzCCAigCAxAAAzANBgkqhkiG9w0BAQUFADCBoDELMAkGA1UEBhMCQkUxEDAO
BgNVBAgMB0FudHdlcnAxETAPBgNVBAcMCE1lY2hlbGVuMR8wHQYDVQQKDBZJbiBT
ZXJmIHdlIHRydXN0LCBJbmMuMRYwFAYDVQQLDA1UZXN0IFN1aXRlIENBMRAwDgYD
VQQDDAdTZXJmIENBMSEwHwYJKoZIhvcNAQkBFhJzZXJmY2FAZXhhbXBsZS5jb20w
HhcNMTMwNDEzMTE0MTAxWhcNMTQwNDEzMTE0MTAxWjCBrDELMAkGA1UEBhMCQkUx
EDAOBgNVBAgMB0FudHdlcnAxETAPBgNVBAcMCE1lY2hlbGVuMR8wHQYDVQQKDBZJ
biBTZXJmIHdlIHRydXN0LCBJbmMuMRowGAYDVQQLDBFUZXN0IFN1aXRlIFNlcnZl
cjEUMBIGA1UEAwwLU2VyZiBTZXJ2ZXIxJTAjBgkqhkiG9w0BCQEWFnNlcmZzZXJ2
ZXJAZXhhbXBsZS5jb20wgZ8wDQYJKoZIhvcNAQEBBQADgY0AMIGJAoGBAKqNVucN
mQObP7PAKmMzUWVL59JsYNJS14ptyYuTPUwa6ykmnBncpaZwPwunaU2LNQC2j/JP
tjhDuafILVF/8vcAKEi495p9pX1cF/fQFFSGOYhDHVzY1FafiKg8R39lz5RWsNi2
3SVmNLrLQ83fk84nG1d/ilD1WjPTVVL/nvdPAgMBAAEwDQYJKoZIhvcNAQEFBQAD
gYEAggKAiezCVlEf0fYvjNlQScJ/AHZTZRWWuw9+s1sGwpxEdzTpZEHKzapBSm+w
lctBERt1Dl7WNICPIqnkzs2atgyWfuYq8M7rhnor37gTOsi1nVtxnEBhVsb5kLhP
HRSIsq1ACPWIqxBddG2mKT0bAWifKUgk2T1SR8q/Iq/9e98=
-----END CERTIFICATE-----
