Certificate:
    Data:
        Version: 1 (0x0)
        Serial Number: 1048578 (0x100002)
    Signature Algorithm: sha1WithRSAEncryption
        Issuer: C=BE, ST=Antwerp, L=Mechelen, O=In Serf we trust, Inc., OU=Test Suite Root CA, CN=Serf Root CA/emailAddress=serfrootca@example.com
        Validity
            Not Before: Apr 13 11:28:06 2013 GMT
            Not After : Apr 13 11:28:06 2014 GMT
        Subject: C=BE, ST=Antwerp, L=Mechelen, O=In Serf we trust, Inc., OU=Test Suite CA, CN=Serf CA/emailAddress=serfca@example.com
        Subject Public Key Info:
            Public Key Algorithm: rsaEncryption
                Public-Key: (1024 bit)
                Modulus:
                    00:ab:10:e4:6c:e6:31:23:9f:f3:5d:a9:22:12:81:
                    9a:b5:8d:7b:4d:8e:b7:8c:1f:2e:14:81:03:bb:44:
                    50:79:d0:42:8c:f4:0f:86:f1:00:76:03:87:ac:a0:
                    a2:3a:6f:ab:b5:17:81:ce:86:d4:35:70:4c:a1:cb:
                    2c:67:17:9b:06:b3:4f:1e:18:ce:9b:5d:15:8e:10:
                    24:a5:9c:73:43:fe:b4:68:a8:65:50:58:31:3b:df:
                    b7:f8:33:d0:5d:af:c6:b1:ec:ed:73:09:cd:3e:42:
                    6a:95:13:d0:bd:b8:9d:5a:23:24:fc:34:4f:b0:72:
                    4b:15:e5:b4:13:4b:bc:24:85
                Exponent: 65537 (0x10001)
    Signature Algorithm: sha1WithRSAEncryption
         46:db:5f:de:b5:66:f8:9b:04:da:3c:f5:1a:99:98:c8:1f:57:
         f8:1e:7a:f9:b4:1e:7e:21:97:11:70:64:2c:58:90:00:28:09:
         12:10:81:fb:27:01:37:4b:22:9a:56:95:42:e2:eb:4b:b5:8b:
         bd:9f:09:4b:34:15:2f:ce:1e:dd:71:8c:40:0c:8a:6a:fe:a6:
         12:f1:68:b7:f3:be:e4:69:fb:b6:3b:c8:c4:13:9c:ae:09:d1:
         dc:51:b9:77:90:14:2b:65:83:30:12:76:ef:33:24:65:99:63:
         2e:62:d7:21:db:e5:d9:a6:2d:05:17:a1:5e:ef:6f:26:f6:2f:
         96:b4
-----BEGIN CERTIFICATE-----
MIICwTCCAioCAxAAAjANBgkqhkiG9w0BAQUFADCBrjELMAkGA1UEBhMCQkUxEDAO
BgNVBAgMB0FudHdlcnAxETAPBgNVBAcMCE1lY2hlbGVuMR8wHQYDVQQKDBZJbiBT
ZXJmIHdlIHRydXN0LCBJbmMuMRswGQYDVQQLDBJUZXN0IFN1aXRlIFJvb3QgQ0Ex
FTATBgNVBAMMDFNlcmYgUm9vdCBDQTElMCMGCSqGSIb3DQEJARYWc2VyZnJvb3Rj
YUBleGFtcGxlLmNvbTAeFw0xMzA0MTMxMTI4MDZaFw0xNDA0MTMxMTI4MDZaMIGg
MQswCQYDVQQGEwJCRTEQMA4GA1UECAwHQW50d2VycDERMA8GA1UEBwwITWVjaGVs
ZW4xHzAdBgNVBAoMFkluIFNlcmYgd2UgdHJ1c3QsIEluYy4xFjAUBgNVBAsMDVRl
c3QgU3VpdGUgQ0ExEDAOBgNVBAMMB1NlcmYgQ0ExITAfBgkqhkiG9w0BCQEWEnNl
cmZjYUBleGFtcGxlLmNvbTCBnzANBgkqhkiG9w0BAQEFAAOBjQAwgYkCgYEAqxDk
bOYxI5/zXakiEoGatY17TY63jB8uFIEDu0RQedBCjPQPhvEAdgOHrKCiOm+rtReB
zobUNXBMocssZxebBrNPHhjOm10VjhAkpZxzQ/60aKhlUFgxO9+3+DPQXa/Gsezt
cwnNPkJqlRPQvbidWiMk/DRPsHJLFeW0E0u8JIUCAwEAATANBgkqhkiG9w0BAQUF
AAOBgQBG21/etWb4mwTaPPUamZjIH1f4Hnr5tB5+IZcRcGQsWJAAKAkSEIH7JwE3
SyKaVpVC4utLtYu9nwlLNBUvzh7dcYxADIpq/qYS8Wi3877kafu2O8jEE5yuCdHc
Ubl3kBQrZYMwEnbvMyRlmWMuYtch2+XZpi0FF6Fe728m9i+WtA==
-----END CERTIFICATE-----
