Certificate:
    Data:
        Version: 3 (0x2)
        Serial Number: 14060582211199810902 (0xc321390661bdbd56)
    Signature Algorithm: sha1WithRSAEncryption
        Issuer: C=BE, ST=Antwerp, L=Mechelen, O=In Serf we trust, Inc., OU=Test Suite Root CA, CN=Serf Root CA/emailAddress=serfrootca@example.com
        Validity
            Not Before: Apr 13 11:19:14 2013 GMT
            Not After : Apr 11 11:19:14 2023 GMT
        Subject: C=BE, ST=Antwerp, L=Mechelen, O=In Serf we trust, Inc., OU=Test Suite Root CA, CN=Serf Root CA/emailAddress=serfrootca@example.com
        Subject Public Key Info:
            Public Key Algorithm: rsaEncryption
                Public-Key: (1024 bit)
                Modulus:
                    00:e1:dd:69:ea:ac:fd:f2:73:81:ec:ed:b6:b1:0e:
                    70:23:8c:01:6d:ab:f3:43:ab:0f:fc:8a:6a:23:eb:
                    6c:48:37:c9:c0:8f:29:61:00:7e:89:1f:00:d1:68:
                    dd:70:de:bd:34:32:0e:41:ac:f9:ea:c1:a6:0d:b5:
                    65:be:5c:9e:f1:b4:27:54:c1:79:61:63:d4:2d:06:
                    11:5f:cc:4c:d9:d3:ef:4e:da:9f:a4:26:16:cb:3f:
                    86:f8:21:7d:c5:3a:32:34:c8:cb:85:ad:c4:3f:e4:
                    b3:ad:8e:a7:67:9e:0c:3b:5a:58:29:5f:ce:96:3b:
                    e3:f5:ca:42:eb:7b:44:d5:75
                Exponent: 65537 (0x10001)
        X509v3 extensions:
            X509v3 Subject Key Identifier: 
                B2:3E:19:35:C1:C4:4F:23:79:ED:BF:E8:DC:5C:31:03:F0:2F:15:77
            X509v3 Authority Key Identifier: 
                keyid:B2:3E:19:35:C1:C4:4F:23:79:ED:BF:E8:DC:5C:31:03:F0:2F:15:77

            X509v3 Basic Constraints: 
                CA:TRUE
    Signature Algorithm: sha1WithRSAEncryption
         c3:ec:1f:3e:b1:87:d0:80:10:f9:bf:73:1b:38:d4:b1:b7:80:
         4d:ea:20:c1:79:7d:f5:58:42:11:13:28:ab:b1:b4:0a:88:9c:
         20:4d:9c:b5:5a:41:28:5e:f6:69:5e:55:bb:e2:1a:b9:c6:62:
         38:86:32:7b:93:28:ca:9e:af:d1:06:f9:93:c2:5d:92:c0:25:
         68:6a:e1:fe:85:2a:19:a7:6b:17:4d:23:9a:72:d6:d0:c1:80:
         ff:74:10:8b:62:7a:11:c3:9a:87:2a:e4:7d:d1:8c:72:a6:bf:
         c1:3b:d8:b8:33:c0:ff:b0:f7:d6:0e:a3:dd:36:fe:8a:41:a0:
         98:cc
-----BEGIN CERTIFICATE-----
MIIDLDCCApWgAwIBAgIJAMMhOQZhvb1WMA0GCSqGSIb3DQEBBQUAMIGuMQswCQYD
VQQGEwJCRTEQMA4GA1UECAwHQW50d2VycDERMA8GA1UEBwwITWVjaGVsZW4xHzAd
BgNVBAoMFkluIFNlcmYgd2UgdHJ1c3QsIEluYy4xGzAZBgNVBAsMElRlc3QgU3Vp
dGUgUm9vdCBDQTEVMBMGA1UEAwwMU2VyZiBSb290IENBMSUwIwYJKoZIhvcNAQkB
FhZzZXJmcm9vdGNhQGV4YW1wbGUuY29tMB4XDTEzMDQxMzExMTkxNFoXDTIzMDQx
MTExMTkxNFowga4xCzAJBgNVBAYTAkJFMRAwDgYDVQQIDAdBbnR3ZXJwMREwDwYD
VQQHDAhNZWNoZWxlbjEfMB0GA1UECgwWSW4gU2VyZiB3ZSB0cnVzdCwgSW5jLjEb
MBkGA1UECwwSVGVzdCBTdWl0ZSBSb290IENBMRUwEwYDVQQDDAxTZXJmIFJvb3Qg
Q0ExJTAjBgkqhkiG9w0BCQEWFnNlcmZyb290Y2FAZXhhbXBsZS5jb20wgZ8wDQYJ
KoZIhvcNAQEBBQADgY0AMIGJAoGBAOHdaeqs/fJzgezttrEOcCOMAW2r80OrD/yK
aiPrbEg3ycCPKWEAfokfANFo3XDevTQyDkGs+erBpg21Zb5cnvG0J1TBeWFj1C0G
EV/MTNnT707an6QmFss/hvghfcU6MjTIy4WtxD/ks62Op2eeDDtaWClfzpY74/XK
Qut7RNV1AgMBAAGjUDBOMB0GA1UdDgQWBBSyPhk1wcRPI3ntv+jcXDED8C8VdzAf
BgNVHSMEGDAWgBSyPhk1wcRPI3ntv+jcXDED8C8VdzAMBgNVHRMEBTADAQH/MA0G
CSqGSIb3DQEBBQUAA4GBAMPsHz6xh9CAEPm/cxs41LG3gE3qIMF5ffVYQhETKKux
tAqInCBNnLVaQShe9mleVbviGrnGYjiGMnuTKMqer9EG+ZPCXZLAJWhq4f6FKhmn
axdNI5py1tDBgP90EItiehHDmocq5H3RjHKmv8E72LgzwP+w99YOo902/opBoJjM
-----END CERTIFICATE-----
